Certificate:
    Data:
        Version: 3 (0x2)
        Serial Number: 5 (0x5)
        Signature Algorithm: sha1WithRSAEncryption
        Issuer: C=BA, ST=RS, L=Banja Luka, O=Elektrotehnicki fakultet, OU=ETF, CN=MarkoMaric/emailAddress=marko@hotmail.com
        Validity
            Not Before: Sep 19 12:47:50 2023 GMT
            Not After : Sep 18 12:47:50 2024 GMT
        Subject: C=BA, ST=RS, O=Elektrotehnicki fakultet, OU=ETF, CN=milan/emailAddress=milan@hotmail.com
        Subject Public Key Info:
            Public Key Algorithm: rsaEncryption
                RSA Public-Key: (2048 bit)
                Modulus:
                    00:b7:82:ac:44:52:8e:17:f4:bf:35:8b:2b:d5:85:
                    c7:cf:b1:6b:53:c1:bd:f0:e2:02:ff:54:77:3e:2a:
                    21:64:0c:ef:b0:50:9b:68:51:ae:3c:dc:41:03:f8:
                    30:d5:7f:6c:7a:4a:6f:bc:da:c4:b2:8c:3b:a2:0b:
                    51:69:8e:78:af:de:38:4c:04:f5:2c:22:4d:11:ff:
                    4c:0d:2b:f7:3f:27:66:e0:1e:45:b8:fb:85:16:c5:
                    c0:bf:a3:31:18:5f:4a:db:4f:0f:73:57:3c:4f:c1:
                    fe:54:e2:e5:65:42:18:c1:96:77:01:c2:c4:3b:ab:
                    43:a8:00:54:86:1c:eb:56:b4:08:52:e6:0a:e2:20:
                    70:f6:d2:9a:5a:4d:d8:54:b8:c6:06:35:c3:49:86:
                    42:29:6e:b7:35:be:b7:53:6b:06:7a:c2:0c:7c:03:
                    15:e5:26:25:19:59:ef:9e:91:e1:06:71:cd:a5:61:
                    04:a2:73:43:c8:2a:d1:39:55:1f:f8:96:b1:3c:76:
                    eb:ba:bd:90:71:1c:28:52:21:e6:d4:84:c8:fd:2e:
                    b4:07:f1:4e:76:ee:d7:18:ca:ab:98:72:0c:35:95:
                    db:90:87:d9:49:4a:71:4c:b4:a7:b0:1c:ff:e0:04:
                    f0:d2:1e:5b:76:27:78:3e:f5:94:c2:6a:16:84:15:
                    5c:c5
                Exponent: 65537 (0x10001)
        X509v3 extensions:
            X509v3 Basic Constraints: 
                CA:FALSE
            X509v3 Key Usage: 
                Digital Signature, Key Encipherment, Data Encipherment, Key Agreement
            X509v3 Extended Key Usage: 
                TLS Web Client Authentication, TLS Web Server Authentication
            Netscape Comment: 
                OpenSSL Generated Certificate
            X509v3 Subject Key Identifier: 
                4F:37:E1:B6:DB:49:3E:70:52:77:7A:8F:C9:B2:A7:70:C6:F9:C7:9B
            X509v3 Authority Key Identifier: 
                keyid:85:D6:90:EC:C4:22:CF:F0:5A:BB:89:CE:26:BF:D1:EC:CE:F6:E6:C2

            X509v3 CRL Distribution Points: 

                Full Name:
                  URI:http://192.168.21.89/rootcrl.pem

    Signature Algorithm: sha1WithRSAEncryption
         1a:57:6e:9d:4e:d2:ca:36:40:1f:c7:c8:80:6f:3c:ac:14:a6:
         0b:96:9c:0c:04:dd:54:7f:cd:a3:ae:20:ba:65:fe:22:55:e9:
         43:70:e0:61:4a:b4:bc:40:a4:02:e3:83:3f:72:60:03:51:41:
         3d:78:9f:c7:aa:cd:ae:19:c4:1b:36:e2:df:cd:e4:73:1f:43:
         76:7c:d9:26:07:af:8d:cc:3c:59:f7:b4:07:d4:12:50:64:5c:
         cb:63:f6:b8:fe:54:ae:71:94:03:e3:94:c3:53:4d:f2:aa:51:
         e6:6f:93:a9:47:ce:05:1d:e9:f2:2e:c9:f3:18:89:a5:a9:04:
         82:93:23:cd:72:ec:da:93:01:78:1c:45:5f:c1:ec:dd:28:a4:
         69:69:4a:3b:17:ab:d5:5a:27:04:93:0b:a7:f0:aa:b8:24:35:
         10:9a:a2:b1:48:e7:68:ab:14:53:a7:7c:6a:04:ba:68:56:82:
         9a:b3:c2:10:15:90:f1:36:ec:26:5b:37:f4:ec:d0:7a:34:be:
         22:eb:58:41:ff:82:26:b5:c2:85:6d:e9:94:fd:e4:06:a9:ba:
         0b:e0:b0:61:67:1e:2f:c9:d2:d2:34:96:ec:cf:be:2b:17:6f:
         b6:bd:13:02:2e:d3:3c:88:dd:c7:c7:a6:7c:90:30:1b:a5:5c:
         19:f6:93:fa
-----BEGIN CERTIFICATE-----
MIIEbDCCA1SgAwIBAgIBBTANBgkqhkiG9w0BAQUFADCBlzELMAkGA1UEBhMCQkEx
CzAJBgNVBAgTAlJTMRMwEQYDVQQHEwpCYW5qYSBMdWthMSEwHwYDVQQKExhFbGVr
dHJvdGVobmlja2kgZmFrdWx0ZXQxDDAKBgNVBAsTA0VURjETMBEGA1UEAxMKTWFy
a29NYXJpYzEgMB4GCSqGSIb3DQEJARYRbWFya29AaG90bWFpbC5jb20wHhcNMjMw
OTE5MTI0NzUwWhcNMjQwOTE4MTI0NzUwWjB9MQswCQYDVQQGEwJCQTELMAkGA1UE
CBMCUlMxITAfBgNVBAoTGEVsZWt0cm90ZWhuaWNraSBmYWt1bHRldDEMMAoGA1UE
CxMDRVRGMQ4wDAYDVQQDEwVtaWxhbjEgMB4GCSqGSIb3DQEJARYRbWlsYW5AaG90
bWFpbC5jb20wggEiMA0GCSqGSIb3DQEBAQUAA4IBDwAwggEKAoIBAQC3gqxEUo4X
9L81iyvVhcfPsWtTwb3w4gL/VHc+KiFkDO+wUJtoUa483EED+DDVf2x6Sm+82sSy
jDuiC1Fpjniv3jhMBPUsIk0R/0wNK/c/J2bgHkW4+4UWxcC/ozEYX0rbTw9zVzxP
wf5U4uVlQhjBlncBwsQ7q0OoAFSGHOtWtAhS5griIHD20ppaTdhUuMYGNcNJhkIp
brc1vrdTawZ6wgx8AxXlJiUZWe+ekeEGcc2lYQSic0PIKtE5VR/4lrE8duu6vZBx
HChSIebUhMj9LrQH8U527tcYyquYcgw1lduQh9lJSnFMtKewHP/gBPDSHlt2J3g+
9ZTCahaEFVzFAgMBAAGjgdswgdgwCQYDVR0TBAIwADALBgNVHQ8EBAMCA7gwHQYD
VR0lBBYwFAYIKwYBBQUHAwIGCCsGAQUFBwMBMCwGCWCGSAGG+EIBDQQfFh1PcGVu
U1NMIEdlbmVyYXRlZCBDZXJ0aWZpY2F0ZTAdBgNVHQ4EFgQUTzfhtttJPnBSd3qP
ybKncMb5x5swHwYDVR0jBBgwFoAUhdaQ7MQiz/Bau4nOJr/R7M725sIwMQYDVR0f
BCowKDAmoCSgIoYgaHR0cDovLzE5Mi4xNjguMjEuODkvcm9vdGNybC5wZW0wDQYJ
KoZIhvcNAQEFBQADggEBABpXbp1O0so2QB/HyIBvPKwUpguWnAwE3VR/zaOuILpl
/iJV6UNw4GFKtLxApALjgz9yYANRQT14n8eqza4ZxBs24t/N5HMfQ3Z82SYHr43M
PFn3tAfUElBkXMtj9rj+VK5xlAPjlMNTTfKqUeZvk6lHzgUd6fIuyfMYiaWpBIKT
I81y7NqTAXgcRV/B7N0opGlpSjsXq9VaJwSTC6fwqrgkNRCaorFI52irFFOnfGoE
umhWgpqzwhAVkPE27CZbN/Ts0Ho0viLrWEH/gia1woVt6ZT95AapugvgsGFnHi/J
0tI0luzPvisXb7a9EwIu0zyI3cfHpnyQMBulXBn2k/o=
-----END CERTIFICATE-----
