Certificate:
    Data:
        Version: 3 (0x2)
        Serial Number: 6 (0x6)
        Signature Algorithm: sha1WithRSAEncryption
        Issuer: C=BA, ST=RS, L=Banja Luka, O=Elektrotehnicki fakultet, OU=ETF, CN=MarkoMaric/emailAddress=marko@hotmail.com
        Validity
            Not Before: Sep 19 12:50:09 2023 GMT
            Not After : Sep 18 12:50:09 2024 GMT
        Subject: C=BA, ST=RS, O=Elektrotehnicki fakultet, OU=ETF, CN=milica/emailAddress=milica@hotmail.com
        Subject Public Key Info:
            Public Key Algorithm: rsaEncryption
                RSA Public-Key: (2048 bit)
                Modulus:
                    00:b1:bd:93:06:d0:0f:c6:b8:de:a9:1a:e2:bd:43:
                    9c:ac:ec:de:b5:00:14:34:da:69:2a:81:e4:6e:85:
                    40:68:bb:30:79:0d:ad:71:94:92:66:e9:ac:2c:f4:
                    d7:4b:08:05:6a:60:30:6f:2d:4d:4f:e5:0a:72:15:
                    cc:6c:b2:04:01:27:b8:03:1d:86:7c:55:64:aa:50:
                    03:1b:62:83:58:55:10:87:da:a9:eb:ec:91:5b:02:
                    29:ed:d2:69:d3:cc:10:0a:1e:b0:96:86:3f:60:1c:
                    4e:88:e5:1a:8e:9b:8a:9d:1d:ef:86:91:bd:20:8c:
                    e1:d2:1f:92:ce:bd:05:11:37:93:1b:13:09:af:bb:
                    c6:6d:b0:0e:c2:e6:f9:01:6c:a1:ee:8d:db:64:f2:
                    6e:d3:52:39:19:69:3f:7b:3e:a1:23:9a:a0:5b:94:
                    ec:4a:a0:95:af:24:68:4e:62:f2:61:2e:d8:94:fd:
                    88:27:69:02:63:e4:a0:ca:5f:af:bf:03:3f:9f:13:
                    79:66:40:8a:90:93:9b:5d:ee:73:cd:c9:71:c1:47:
                    2c:93:23:c9:92:a6:97:f3:f6:53:ea:6b:32:ee:55:
                    e0:6d:de:54:7d:6b:79:fe:3d:30:7b:02:00:16:c2:
                    3d:30:ae:0b:1c:0c:20:3e:7e:51:60:12:6a:af:36:
                    6a:e7
                Exponent: 65537 (0x10001)
        X509v3 extensions:
            X509v3 Basic Constraints: 
                CA:FALSE
            X509v3 Key Usage: 
                Digital Signature, Key Encipherment, Data Encipherment, Key Agreement
            X509v3 Extended Key Usage: 
                TLS Web Client Authentication, TLS Web Server Authentication
            Netscape Comment: 
                OpenSSL Generated Certificate
            X509v3 Subject Key Identifier: 
                19:85:C6:B0:31:1C:75:5D:4C:0C:08:1F:15:45:14:54:7D:56:E3:2E
            X509v3 Authority Key Identifier: 
                keyid:85:D6:90:EC:C4:22:CF:F0:5A:BB:89:CE:26:BF:D1:EC:CE:F6:E6:C2

            X509v3 CRL Distribution Points: 

                Full Name:
                  URI:http://192.168.21.89/rootcrl.pem

    Signature Algorithm: sha1WithRSAEncryption
         55:72:74:5e:4d:2b:31:39:d3:66:01:d8:f7:36:4c:2d:fa:3e:
         73:39:8f:02:ba:2f:77:90:dd:bc:07:a5:b4:57:9f:d2:9e:e4:
         9a:41:61:0f:4d:f2:91:81:c1:e3:02:4e:10:93:49:fd:ef:c8:
         97:f5:bf:5a:cf:4e:49:50:37:25:6c:f5:b7:6d:93:3d:5f:b0:
         37:62:60:78:c9:fb:cd:5a:1d:5b:cf:aa:dd:b9:af:6a:30:24:
         f1:3e:11:fe:b8:9d:f1:37:fc:76:e6:bf:72:13:f3:ee:31:f7:
         b9:fc:55:b1:86:5c:fa:a8:4c:95:ff:ea:ac:a5:ad:c3:93:ea:
         19:7b:ea:96:38:38:94:14:de:ec:64:4b:0c:a6:e4:da:a3:c6:
         28:07:83:21:5a:94:f7:44:e7:c3:6d:84:0d:a9:72:68:e9:1c:
         84:a7:fb:a3:62:b5:ac:e9:f1:68:f7:b5:4d:51:8e:0a:db:3e:
         3c:2b:b8:6a:3b:5e:e5:1c:e6:af:79:8c:cd:fc:4e:d7:cc:26:
         36:3e:93:46:57:cc:5b:9b:ed:32:aa:d1:02:d8:37:59:46:5e:
         fc:c3:2d:75:4b:ff:b4:e8:88:36:a0:5c:48:45:05:c5:f5:57:
         b4:be:d6:05:64:46:43:c8:a8:1c:c2:20:fa:a7:d4:11:27:cb:
         de:ce:5a:6a
-----BEGIN CERTIFICATE-----
MIIEbjCCA1agAwIBAgIBBjANBgkqhkiG9w0BAQUFADCBlzELMAkGA1UEBhMCQkEx
CzAJBgNVBAgTAlJTMRMwEQYDVQQHEwpCYW5qYSBMdWthMSEwHwYDVQQKExhFbGVr
dHJvdGVobmlja2kgZmFrdWx0ZXQxDDAKBgNVBAsTA0VURjETMBEGA1UEAxMKTWFy
a29NYXJpYzEgMB4GCSqGSIb3DQEJARYRbWFya29AaG90bWFpbC5jb20wHhcNMjMw
OTE5MTI1MDA5WhcNMjQwOTE4MTI1MDA5WjB/MQswCQYDVQQGEwJCQTELMAkGA1UE
CBMCUlMxITAfBgNVBAoTGEVsZWt0cm90ZWhuaWNraSBmYWt1bHRldDEMMAoGA1UE
CxMDRVRGMQ8wDQYDVQQDEwZtaWxpY2ExITAfBgkqhkiG9w0BCQEWEm1pbGljYUBo
b3RtYWlsLmNvbTCCASIwDQYJKoZIhvcNAQEBBQADggEPADCCAQoCggEBALG9kwbQ
D8a43qka4r1DnKzs3rUAFDTaaSqB5G6FQGi7MHkNrXGUkmbprCz010sIBWpgMG8t
TU/lCnIVzGyyBAEnuAMdhnxVZKpQAxtig1hVEIfaqevskVsCKe3SadPMEAoesJaG
P2AcTojlGo6bip0d74aRvSCM4dIfks69BRE3kxsTCa+7xm2wDsLm+QFsoe6N22Ty
btNSORlpP3s+oSOaoFuU7Eqgla8kaE5i8mEu2JT9iCdpAmPkoMpfr78DP58TeWZA
ipCTm13uc83JccFHLJMjyZKml/P2U+prMu5V4G3eVH1ref49MHsCABbCPTCuCxwM
ID5+UWASaq82aucCAwEAAaOB2zCB2DAJBgNVHRMEAjAAMAsGA1UdDwQEAwIDuDAd
BgNVHSUEFjAUBggrBgEFBQcDAgYIKwYBBQUHAwEwLAYJYIZIAYb4QgENBB8WHU9w
ZW5TU0wgR2VuZXJhdGVkIENlcnRpZmljYXRlMB0GA1UdDgQWBBQZhcawMRx1XUwM
CB8VRRRUfVbjLjAfBgNVHSMEGDAWgBSF1pDsxCLP8Fq7ic4mv9HszvbmwjAxBgNV
HR8EKjAoMCagJKAihiBodHRwOi8vMTkyLjE2OC4yMS44OS9yb290Y3JsLnBlbTAN
BgkqhkiG9w0BAQUFAAOCAQEAVXJ0Xk0rMTnTZgHY9zZMLfo+czmPArovd5DdvAel
tFef0p7kmkFhD03ykYHB4wJOEJNJ/e/Il/W/Ws9OSVA3JWz1t22TPV+wN2JgeMn7
zVodW8+q3bmvajAk8T4R/rid8Tf8dua/chPz7jH3ufxVsYZc+qhMlf/qrKWtw5Pq
GXvqljg4lBTe7GRLDKbk2qPGKAeDIVqU90Tnw22EDalyaOkchKf7o2K1rOnxaPe1
TVGOCts+PCu4ajte5Rzmr3mMzfxO18wmNj6TRlfMW5vtMqrRAtg3WUZe/MMtdUv/
tOiINqBcSEUFxfVXtL7WBWRGQ8ioHMIg+qfUESfL3s5aag==
-----END CERTIFICATE-----
